target datalayout = "e-m:e-p270:32:32-p271:32:32-p272:64:64-i64:64-i128:128-f80:128-n8:16:32:64-S128"
target triple = "x86_64-pc-linux-gnu"

%struct.pm_constant_id_list_t = type { i64, i64, ptr }

; Function Attrs: nounwind sspstrong uwtable
define hidden void @pm_constant_id_list_insert(ptr noundef %0, i64 noundef %1, i32 noundef %2) #0 {
  %4 = alloca ptr, align 8
  %5 = alloca i64, align 8
  %6 = alloca i32, align 4
  store ptr %0, ptr %4, align 8, !tbaa !7
  store i64 %1, ptr %5, align 8, !tbaa !17
  store i32 %2, ptr %6, align 4, !tbaa !18
  %7 = load i32, ptr %6, align 4, !tbaa !18
  %8 = load ptr, ptr %4, align 8, !tbaa !7
  %9 = getelementptr inbounds nuw %struct.pm_constant_id_list_t, ptr %8, i32 0, i32 2
  %10 = load ptr, ptr %9, align 8, !tbaa !11
  %11 = load i64, ptr %5, align 8, !tbaa !17
  %12 = getelementptr i32, ptr %10, i64 %11
  store i32 %7, ptr %12, align 4, !tbaa !18
  %13 = load ptr, ptr %4, align 8, !tbaa !7
  %14 = getelementptr inbounds nuw %struct.pm_constant_id_list_t, ptr %13, i32 0, i32 0
  %15 = load i64, ptr %14, align 8, !tbaa !15
  %16 = add i64 %15, 1
  store i64 %16, ptr %14, align 8, !tbaa !15
  ret void
}