; Function Attrs: mustprogress nofree norecurse nosync nounwind sspstrong willreturn memory(write, argmem: readwrite, inaccessiblemem: none) uwtable
define hidden void @pm_constant_id_list_insert(ptr noundef captures(none) %0, i64 noundef %1, i32 noundef %2) local_unnamed_addr #6 {
  %4 = getelementptr inbounds nuw i8, ptr %0, i64 16
  %5 = load ptr, ptr %4, align 8, !tbaa !7
  %6 = getelementptr i32, ptr %5, i64 %1
  store i32 %2, ptr %6, align 4, !tbaa !16
  %7 = load i64, ptr %0, align 8, !tbaa !14
  %8 = add i64 %7, 1
  store i64 %8, ptr %0, align 8, !tbaa !14
  ret void
}